target datalayout = "e-m:e-p270:32:32-p271:32:32-p272:64:64-i64:64-i128:128-f80:128-n8:16:32:64-S128"
target triple = "x86_64-pc-linux-gnu"

%"struct.Luau::FValue.0" = type { i32, i8, ptr, ptr }
%"class.Luau::DenseHashMap" = type { %"class.Luau::detail::DenseHashTable" }
%"class.Luau::detail::DenseHashTable" = type <{ ptr, i64, i64, ptr, [8 x i8] }>
%"struct.std::__detail::_Hash_node_base" = type { ptr }
%"struct.std::__detail::_Prime_rehash_policy" = type { float, i64 }
%"struct.Luau::NotNull" = type { ptr }
%"class.Luau::Normalizer" = type <{ %"class.std::unordered_map.68", %"class.std::unordered_map.82", %"class.std::unordered_map.82", %"class.std::unordered_map.100", %"class.Luau::DenseHashMap", %"class.Luau::DenseHashMap.114", ptr, %"struct.Luau::NotNull", %"struct.Luau::NotNull.119", i8, [7 x i8] }>
%"class.std::unordered_map.68" = type { %"class.std::_Hashtable.69" }
%"class.std::_Hashtable.69" = type { ptr, i64, %"struct.std::__detail::_Hash_node_base", i64, %"struct.std::__detail::_Prime_rehash_policy", ptr }
%"class.std::unordered_map.82" = type { %"class.std::_Hashtable.83" }
%"class.std::_Hashtable.83" = type { ptr, i64, %"struct.std::__detail::_Hash_node_base", i64, %"struct.std::__detail::_Prime_rehash_policy", ptr }
%"class.std::unordered_map.100" = type { %"class.std::_Hashtable.101" }
%"class.std::_Hashtable.101" = type { ptr, i64, %"struct.std::__detail::_Hash_node_base", i64, %"struct.std::__detail::_Prime_rehash_policy", ptr }
%"class.Luau::DenseHashMap.114" = type { %"class.Luau::detail::DenseHashTable.115" }
%"class.Luau::detail::DenseHashTable.115" = type <{ ptr, i64, i64, %"struct.std::pair.116", [8 x i8] }>
%"struct.std::pair.116" = type { ptr, ptr }
%"struct.Luau::NotNull.119" = type { ptr }
%"struct.Luau::UnifierSharedState" = type <{ ptr, %"class.Luau::DenseHashMap", %"class.Luau::DenseHashSet", %"class.Luau::DenseHashMap.122", %"class.Luau::DenseHashSet.125", %"class.Luau::DenseHashSet.128", %"struct.Luau::UnifierCounters", i8, [7 x i8] }>
%"class.Luau::DenseHashSet" = type { %"class.Luau::detail::DenseHashTable.120" }
%"class.Luau::detail::DenseHashTable.120" = type <{ ptr, i64, i64, %"struct.std::pair.116", [8 x i8] }>
%"class.Luau::DenseHashMap.122" = type { %"class.Luau::detail::DenseHashTable.123" }
%"class.Luau::detail::DenseHashTable.123" = type <{ ptr, i64, i64, %"struct.std::pair.116", [8 x i8] }>
%"class.Luau::DenseHashSet.125" = type { %"class.Luau::detail::DenseHashTable.126" }
%"class.Luau::detail::DenseHashTable.126" = type <{ ptr, i64, i64, ptr, [8 x i8] }>
%"class.Luau::DenseHashSet.128" = type { %"class.Luau::detail::DenseHashTable.129" }
%"class.Luau::detail::DenseHashTable.129" = type <{ ptr, i64, i64, ptr, [8 x i8] }>
%"struct.Luau::UnifierCounters" = type { i32, i32, i32, i32 }

@_ZN4FInt23LuauNormalizeCacheLimitE = dso_local global %"struct.Luau::FValue.0" zeroinitializer, align 8

; Function Attrs: mustprogress nounwind uwtable
define linkonce_odr dso_local noundef i64 @_ZNK4Luau6detail14DenseHashTableISt4pairIPKNS_4TypeES5_ES2_IS6_bES2_IKS6_bENS0_16ItemInterfaceMapIS6_bEENS_14TypeIdPairHashESt8equal_toIS6_EE4sizeEv(ptr noundef nonnull align 8 dereferenceable(42) %0) #2 comdat align 2 {
  %2 = alloca ptr, align 8
  store ptr %0, ptr %2, align 8, !tbaa !819
  %3 = load ptr, ptr %2, align 8
  %4 = getelementptr inbounds nuw %"class.Luau::detail::DenseHashTable.115", ptr %3, i32 0, i32 2
  %5 = load i64, ptr %4, align 8, !tbaa !1671
  ret i64 %5
}

; Function Attrs: mustprogress nounwind uwtable
define linkonce_odr dso_local noundef i64 @_ZNK4Luau6detail14DenseHashTableIPKNS_4TypeESt4pairIS4_bES5_IKS4_bENS0_16ItemInterfaceMapIS4_bEENS_16DenseHashPointerESt8equal_toIS4_EE4sizeEv(ptr noundef nonnull align 8 dereferenceable(34) %0) #2 comdat align 2 {
  %2 = alloca ptr, align 8
  store ptr %0, ptr %2, align 8, !tbaa !717
  %3 = load ptr, ptr %2, align 8
  %4 = getelementptr inbounds nuw %"class.Luau::detail::DenseHashTable", ptr %3, i32 0, i32 2
  %5 = load i64, ptr %4, align 8, !tbaa !949
  ret i64 %5
}

; Function Attrs: mustprogress nounwind uwtable
define linkonce_odr dso_local noundef i64 @_ZNKSt10_HashtableIPKN4Luau7TypeIdsESt4pairIKS3_St10unique_ptrIS1_St14default_deleteIS1_EEESaISA_ENSt8__detail10_Select1stESt8equal_toIS3_ESt4hashIS3_ENSC_18_Mod_range_hashingENSC_20_Default_ranged_hashENSC_20_Prime_rehash_policyENSC_17_Hashtable_traitsILb1ELb0ELb1EEEE4sizeEv(ptr noundef nonnull align 8 dereferenceable(56) %0) #2 comdat align 2 {
  %2 = alloca ptr, align 8
  store ptr %0, ptr %2, align 8, !tbaa !864
  %3 = load ptr, ptr %2, align 8
  %4 = getelementptr inbounds nuw %"class.std::_Hashtable.101", ptr %3, i32 0, i32 3
  %5 = load i64, ptr %4, align 8, !tbaa !868
  ret i64 %5
}

; Function Attrs: mustprogress nounwind uwtable
define linkonce_odr dso_local noundef i64 @_ZNKSt10_HashtableIPKN4Luau7TypeIdsESt4pairIKS3_PKNS0_4TypeEESaIS9_ENSt8__detail10_Select1stESt8equal_toIS3_ESt4hashIS3_ENSB_18_Mod_range_hashingENSB_20_Default_ranged_hashENSB_20_Prime_rehash_policyENSB_17_Hashtable_traitsILb1ELb0ELb1EEEE4sizeEv(ptr noundef nonnull align 8 dereferenceable(56) %0) #2 comdat align 2 {
  %2 = alloca ptr, align 8
  store ptr %0, ptr %2, align 8, !tbaa !842
  %3 = load ptr, ptr %2, align 8
  %4 = getelementptr inbounds nuw %"class.std::_Hashtable.83", ptr %3, i32 0, i32 3
  %5 = load i64, ptr %4, align 8, !tbaa !846
  ret i64 %5
}

; Function Attrs: mustprogress nounwind uwtable
define linkonce_odr dso_local noundef i64 @_ZNKSt10_HashtableIPKN4Luau4TypeESt4pairIKS3_St10shared_ptrINS0_14NormalizedTypeEEESaIS9_ENSt8__detail10_Select1stESt8equal_toIS3_ESt4hashIS3_ENSB_18_Mod_range_hashingENSB_20_Default_ranged_hashENSB_20_Prime_rehash_policyENSB_17_Hashtable_traitsILb0ELb0ELb1EEEE4sizeEv(ptr noundef nonnull align 8 dereferenceable(56) %0) #2 comdat align 2 {
  %2 = alloca ptr, align 8
  store ptr %0, ptr %2, align 8, !tbaa !824
  %3 = load ptr, ptr %2, align 8
  %4 = getelementptr inbounds nuw %"class.std::_Hashtable.69", ptr %3, i32 0, i32 3
  %5 = load i64, ptr %4, align 8, !tbaa !828
  ret i64 %5
}

; Function Attrs: mustprogress nounwind uwtable
define linkonce_odr dso_local noundef ptr @_ZNK4Luau7NotNullINS_18UnifierSharedStateEEptEv(ptr noundef nonnull align 8 dereferenceable(8) %0) #2 comdat align 2 {
  %2 = alloca ptr, align 8
  store ptr %0, ptr %2, align 8, !tbaa !203
  %3 = load ptr, ptr %2, align 8
  %4 = getelementptr inbounds nuw %"struct.Luau::NotNull.119", ptr %3, i32 0, i32 0
  %5 = load ptr, ptr %4, align 8, !tbaa !205
  ret ptr %5
}

; Function Attrs: mustprogress uwtable
define linkonce_odr dso_local noundef i64 @_ZNK4Luau12DenseHashMapISt4pairIPKNS_4TypeES4_EbNS_14TypeIdPairHashESt8equal_toIS5_EE4sizeEv(ptr noundef nonnull align 8 dereferenceable(48) %0) #6 comdat align 2 {
  %2 = alloca ptr, align 8
  store ptr %0, ptr %2, align 8, !tbaa !299
  %3 = load ptr, ptr %2, align 8
  %4 = getelementptr inbounds nuw %"class.Luau::DenseHashMap.114", ptr %3, i32 0, i32 0
  %5 = call noundef i64 @_ZNK4Luau6detail14DenseHashTableISt4pairIPKNS_4TypeES5_ES2_IS6_bES2_IKS6_bENS0_16ItemInterfaceMapIS6_bEENS_14TypeIdPairHashESt8equal_toIS6_EE4sizeEv(ptr noundef nonnull align 8 dereferenceable(42) %4)
  ret i64 %5
}

; Function Attrs: mustprogress uwtable
define linkonce_odr dso_local noundef i64 @_ZNK4Luau12DenseHashMapIPKNS_4TypeEbNS_16DenseHashPointerESt8equal_toIS3_EE4sizeEv(ptr noundef nonnull align 8 dereferenceable(40) %0) #6 comdat align 2 {
  %2 = alloca ptr, align 8
  store ptr %0, ptr %2, align 8, !tbaa !63
  %3 = load ptr, ptr %2, align 8
  %4 = getelementptr inbounds nuw %"class.Luau::DenseHashMap", ptr %3, i32 0, i32 0
  %5 = call noundef i64 @_ZNK4Luau6detail14DenseHashTableIPKNS_4TypeESt4pairIS4_bES5_IKS4_bENS0_16ItemInterfaceMapIS4_bEENS_16DenseHashPointerESt8equal_toIS4_EE4sizeEv(ptr noundef nonnull align 8 dereferenceable(34) %4)
  ret i64 %5
}

; Function Attrs: mustprogress nounwind uwtable
define linkonce_odr dso_local noundef i64 @_ZNKSt13unordered_mapIPKN4Luau7TypeIdsESt10unique_ptrIS1_St14default_deleteIS1_EESt4hashIS3_ESt8equal_toIS3_ESaISt4pairIKS3_S7_EEE4sizeEv(ptr noundef nonnull align 8 dereferenceable(56) %0) #2 comdat align 2 {
  %2 = alloca ptr, align 8
  store ptr %0, ptr %2, align 8, !tbaa !314
  %3 = load ptr, ptr %2, align 8
  %4 = getelementptr inbounds nuw %"class.std::unordered_map.100", ptr %3, i32 0, i32 0
  %5 = call noundef i64 @_ZNKSt10_HashtableIPKN4Luau7TypeIdsESt4pairIKS3_St10unique_ptrIS1_St14default_deleteIS1_EEESaISA_ENSt8__detail10_Select1stESt8equal_toIS3_ESt4hashIS3_ENSC_18_Mod_range_hashingENSC_20_Default_ranged_hashENSC_20_Prime_rehash_policyENSC_17_Hashtable_traitsILb1ELb0ELb1EEEE4sizeEv(ptr noundef nonnull align 8 dereferenceable(56) %4) #4
  ret i64 %5
}

; Function Attrs: mustprogress nounwind uwtable
define linkonce_odr dso_local noundef i64 @_ZNKSt13unordered_mapIPKN4Luau7TypeIdsEPKNS0_4TypeESt4hashIS3_ESt8equal_toIS3_ESaISt4pairIKS3_S6_EEE4sizeEv(ptr noundef nonnull align 8 dereferenceable(56) %0) #2 comdat align 2 {
  %2 = alloca ptr, align 8
  store ptr %0, ptr %2, align 8, !tbaa !312
  %3 = load ptr, ptr %2, align 8
  %4 = getelementptr inbounds nuw %"class.std::unordered_map.82", ptr %3, i32 0, i32 0
  %5 = call noundef i64 @_ZNKSt10_HashtableIPKN4Luau7TypeIdsESt4pairIKS3_PKNS0_4TypeEESaIS9_ENSt8__detail10_Select1stESt8equal_toIS3_ESt4hashIS3_ENSB_18_Mod_range_hashingENSB_20_Default_ranged_hashENSB_20_Prime_rehash_policyENSB_17_Hashtable_traitsILb1ELb0ELb1EEEE4sizeEv(ptr noundef nonnull align 8 dereferenceable(56) %4) #4
  ret i64 %5
}

; Function Attrs: mustprogress nounwind uwtable
define linkonce_odr dso_local noundef i64 @_ZNKSt13unordered_mapIPKN4Luau4TypeESt10shared_ptrINS0_14NormalizedTypeEESt4hashIS3_ESt8equal_toIS3_ESaISt4pairIKS3_S6_EEE4sizeEv(ptr noundef nonnull align 8 dereferenceable(56) %0) #2 comdat align 2 {
  %2 = alloca ptr, align 8
  store ptr %0, ptr %2, align 8, !tbaa !310
  %3 = load ptr, ptr %2, align 8
  %4 = getelementptr inbounds nuw %"class.std::unordered_map.68", ptr %3, i32 0, i32 0
  %5 = call noundef i64 @_ZNKSt10_HashtableIPKN4Luau4TypeESt4pairIKS3_St10shared_ptrINS0_14NormalizedTypeEEESaIS9_ENSt8__detail10_Select1stESt8equal_toIS3_ESt4hashIS3_ENSB_18_Mod_range_hashingENSB_20_Default_ranged_hashENSB_20_Prime_rehash_policyENSB_17_Hashtable_traitsILb0ELb0ELb1EEEE4sizeEv(ptr noundef nonnull align 8 dereferenceable(56) %4) #4
  ret i64 %5
}

; Function Attrs: alwaysinline mustprogress nounwind uwtable
define linkonce_odr dso_local noundef i32 @_ZNK4Luau6FValueIiEcviEv(ptr noundef nonnull align 8 dereferenceable(24) %0) #9 comdat align 2 {
  %2 = alloca ptr, align 8
  store ptr %0, ptr %2, align 8, !tbaa !35
  %3 = load ptr, ptr %2, align 8
  %4 = getelementptr inbounds nuw %"struct.Luau::FValue.0", ptr %3, i32 0, i32 0
  %5 = load i32, ptr %4, align 8, !tbaa !37
  ret i32 %5
}

; Function Attrs: mustprogress uwtable
define dso_local noundef zeroext i1 @_ZN4Luau10Normalizer20withinResourceLimitsEv(ptr noundef nonnull align 8 dereferenceable(337) %0) #6 align 2 {
  %2 = alloca i1, align 1
  %3 = alloca ptr, align 8
  %4 = alloca i64, align 8
  %5 = alloca i32, align 4
  store ptr %0, ptr %3, align 8, !tbaa !191
  %6 = load ptr, ptr %3, align 8
  %7 = call noundef i32 @_ZNK4Luau6FValueIiEcviEv(ptr noundef nonnull align 8 dereferenceable(24) @_ZN4FInt23LuauNormalizeCacheLimitE)
  %8 = icmp sgt i32 %7, 0
  br i1 %8, label %9, label %36

9:                                                ; preds = %1
  call void @llvm.lifetime.start.p0(i64 8, ptr %4) #4
  %10 = getelementptr inbounds nuw %"class.Luau::Normalizer", ptr %6, i32 0, i32 0
  %11 = call noundef i64 @_ZNKSt13unordered_mapIPKN4Luau4TypeESt10shared_ptrINS0_14NormalizedTypeEESt4hashIS3_ESt8equal_toIS3_ESaISt4pairIKS3_S6_EEE4sizeEv(ptr noundef nonnull align 8 dereferenceable(56) %10) #4
  %12 = getelementptr inbounds nuw %"class.Luau::Normalizer", ptr %6, i32 0, i32 1
  %13 = call noundef i64 @_ZNKSt13unordered_mapIPKN4Luau7TypeIdsEPKNS0_4TypeESt4hashIS3_ESt8equal_toIS3_ESaISt4pairIKS3_S6_EEE4sizeEv(ptr noundef nonnull align 8 dereferenceable(56) %12) #4
  %14 = add i64 %11, %13
  %15 = getelementptr inbounds nuw %"class.Luau::Normalizer", ptr %6, i32 0, i32 2
  %16 = call noundef i64 @_ZNKSt13unordered_mapIPKN4Luau7TypeIdsEPKNS0_4TypeESt4hashIS3_ESt8equal_toIS3_ESaISt4pairIKS3_S6_EEE4sizeEv(ptr noundef nonnull align 8 dereferenceable(56) %15) #4
  %17 = add i64 %14, %16
  %18 = getelementptr inbounds nuw %"class.Luau::Normalizer", ptr %6, i32 0, i32 3
  %19 = call noundef i64 @_ZNKSt13unordered_mapIPKN4Luau7TypeIdsESt10unique_ptrIS1_St14default_deleteIS1_EESt4hashIS3_ESt8equal_toIS3_ESaISt4pairIKS3_S7_EEE4sizeEv(ptr noundef nonnull align 8 dereferenceable(56) %18) #4
  %20 = add i64 %17, %19
  %21 = getelementptr inbounds nuw %"class.Luau::Normalizer", ptr %6, i32 0, i32 4
  %22 = call noundef i64 @_ZNK4Luau12DenseHashMapIPKNS_4TypeEbNS_16DenseHashPointerESt8equal_toIS3_EE4sizeEv(ptr noundef nonnull align 8 dereferenceable(40) %21)
  %23 = add i64 %20, %22
  %24 = getelementptr inbounds nuw %"class.Luau::Normalizer", ptr %6, i32 0, i32 5
  %25 = call noundef i64 @_ZNK4Luau12DenseHashMapISt4pairIPKNS_4TypeES4_EbNS_14TypeIdPairHashESt8equal_toIS5_EE4sizeEv(ptr noundef nonnull align 8 dereferenceable(48) %24)
  %26 = add i64 %23, %25
  store i64 %26, ptr %4, align 8, !tbaa !65
  %27 = load i64, ptr %4, align 8, !tbaa !65
  %28 = call noundef i32 @_ZNK4Luau6FValueIiEcviEv(ptr noundef nonnull align 8 dereferenceable(24) @_ZN4FInt23LuauNormalizeCacheLimitE)
  %29 = sext i32 %28 to i64
  %30 = icmp ugt i64 %27, %29
  br i1 %30, label %31, label %32

31:                                               ; preds = %9
  call void @_ZN4Luau10Normalizer11clearCachesEv(ptr noundef nonnull align 8 dereferenceable(337) %6)
  store i1 false, ptr %2, align 1
  store i32 1, ptr %5, align 4
  br label %33

32:                                               ; preds = %9
  store i32 0, ptr %5, align 4
  br label %33

33:                                               ; preds = %32, %31
  call void @llvm.lifetime.end.p0(i64 8, ptr %4) #4
  %34 = load i32, ptr %5, align 4
  switch i32 %34, label %60 [
    i32 0, label %35
    i32 1, label %58
  ]

35:                                               ; preds = %33
  br label %36

36:                                               ; preds = %35, %1
  %37 = getelementptr inbounds nuw %"class.Luau::Normalizer", ptr %6, i32 0, i32 8
  %38 = call noundef ptr @_ZNK4Luau7NotNullINS_18UnifierSharedStateEEptEv(ptr noundef nonnull align 8 dereferenceable(8) %37) #4
  %39 = getelementptr inbounds nuw %"struct.Luau::UnifierSharedState", ptr %38, i32 0, i32 6
  %40 = getelementptr inbounds nuw %"struct.Luau::UnifierCounters", ptr %39, i32 0, i32 1
  %41 = load i32, ptr %40, align 4, !tbaa !214
  %42 = icmp sgt i32 %41, 0
  br i1 %42, label %43, label %57

43:                                               ; preds = %36
  %44 = getelementptr inbounds nuw %"class.Luau::Normalizer", ptr %6, i32 0, i32 8
  %45 = call noundef ptr @_ZNK4Luau7NotNullINS_18UnifierSharedStateEEptEv(ptr noundef nonnull align 8 dereferenceable(8) %44) #4
  %46 = getelementptr inbounds nuw %"struct.Luau::UnifierSharedState", ptr %45, i32 0, i32 6
  %47 = getelementptr inbounds nuw %"struct.Luau::UnifierCounters", ptr %46, i32 0, i32 1
  %48 = load i32, ptr %47, align 4, !tbaa !214
  %49 = getelementptr inbounds nuw %"class.Luau::Normalizer", ptr %6, i32 0, i32 8
  %50 = call noundef ptr @_ZNK4Luau7NotNullINS_18UnifierSharedStateEEptEv(ptr noundef nonnull align 8 dereferenceable(8) %49) #4
  %51 = getelementptr inbounds nuw %"struct.Luau::UnifierSharedState", ptr %50, i32 0, i32 6
  %52 = getelementptr inbounds nuw %"struct.Luau::UnifierCounters", ptr %51, i32 0, i32 0
  %53 = load i32, ptr %52, align 8, !tbaa !233
  %54 = icmp slt i32 %48, %53
  br i1 %54, label %55, label %56

55:                                               ; preds = %43
  store i1 false, ptr %2, align 1
  br label %58

56:                                               ; preds = %43
  br label %57

57:                                               ; preds = %56, %36
  store i1 true, ptr %2, align 1
  br label %58

58:                                               ; preds = %57, %55, %33
  %59 = load i1, ptr %2, align 1
  ret i1 %59

60:                                               ; preds = %33
  unreachable
}