; Function Attrs: mustprogress nounwind uwtable
define dso_local noundef zeroext i1 @_ZN4Luau10Normalizer20withinResourceLimitsEv(ptr noundef nonnull align 8 captures(none) dereferenceable(337) %0) local_unnamed_addr #6 align 2 {
  %2 = load i32, ptr @_ZN4FInt23LuauNormalizeCacheLimitE, align 8, !tbaa !157
  %3 = icmp sgt i32 %2, 0
  br i1 %3, label %4, label %.thread

4:                                                ; preds = %1
  %5 = getelementptr inbounds nuw i8, ptr %0, i64 24
  %6 = load i64, ptr %5, align 8, !tbaa !160
  %7 = getelementptr inbounds nuw i8, ptr %0, i64 80
  %8 = load i64, ptr %7, align 8, !tbaa !162
  %9 = add i64 %8, %6
  %10 = getelementptr inbounds nuw i8, ptr %0, i64 136
  %11 = load i64, ptr %10, align 8, !tbaa !162
  %12 = add i64 %9, %11
  %13 = getelementptr inbounds nuw i8, ptr %0, i64 192
  %14 = load i64, ptr %13, align 8, !tbaa !164
  %15 = add i64 %12, %14
  %16 = getelementptr inbounds nuw i8, ptr %0, i64 240
  %17 = load i64, ptr %16, align 8, !tbaa !43
  %18 = add i64 %15, %17
  %19 = getelementptr inbounds nuw i8, ptr %0, i64 280
  %20 = load i64, ptr %19, align 8, !tbaa !166
  %21 = add i64 %18, %20
  %22 = zext nneg i32 %2 to i64
  %23 = icmp ugt i64 %21, %22
  br i1 %23, label %24, label %.thread

24:                                               ; preds = %4
  tail call void @_ZN4Luau10Normalizer11clearCachesEv(ptr noundef nonnull align 8 dereferenceable(337) %0)
  br label %35

.thread:                                          ; preds = %4, %1
  %25 = getelementptr inbounds nuw i8, ptr %0, i64 328
  %26 = load ptr, ptr %25, align 8, !tbaa !154
  %27 = getelementptr inbounds nuw i8, ptr %26, i64 228
  %28 = load i32, ptr %27, align 4, !tbaa !172
  %29 = icmp sgt i32 %28, 0
  br i1 %29, label %30, label %34

30:                                               ; preds = %.thread
  %31 = getelementptr inbounds nuw i8, ptr %26, i64 224
  %32 = load i32, ptr %31, align 8, !tbaa !190
  %33 = icmp slt i32 %28, %32
  br i1 %33, label %35, label %34

34:                                               ; preds = %30, %.thread
  br label %35

35:                                               ; preds = %24, %30, %34
  %.1 = phi i1 [ false, %24 ], [ true, %34 ], [ false, %30 ]
  ret i1 %.1
}